target datalayout = "e-m:e-p270:32:32-p271:32:32-p272:64:64-i64:64-i128:128-f80:128-n8:16:32:64-S128"
target triple = "x86_64-pc-linux-gnu"

; Function Attrs: nounwind uwtable
define dso_local ptr @mempbrk(ptr noundef %0, i64 noundef %1, ptr noundef %2, i64 noundef %3) #0 {
  %5 = alloca ptr, align 8
  %6 = alloca ptr, align 8
  %7 = alloca i64, align 8
  %8 = alloca ptr, align 8
  %9 = alloca i64, align 8
  %10 = alloca i64, align 8
  %11 = alloca i32, align 4
  %12 = alloca i64, align 8
  store ptr %0, ptr %6, align 8, !tbaa !5
  store i64 %1, ptr %7, align 8, !tbaa !29
  store ptr %2, ptr %8, align 8, !tbaa !5
  store i64 %3, ptr %9, align 8, !tbaa !29
  call void @llvm.lifetime.start.p0(i64 8, ptr %10) #13
  store i64 0, ptr %10, align 8, !tbaa !29
  br label %13

13:                                               ; preds = %47, %4
  %14 = load i64, ptr %10, align 8, !tbaa !29
  %15 = load i64, ptr %7, align 8, !tbaa !29
  %16 = icmp ult i64 %14, %15
  br i1 %16, label %18, label %17

17:                                               ; preds = %13
  store i32 2, ptr %11, align 4
  br label %50

18:                                               ; preds = %13
  call void @llvm.lifetime.start.p0(i64 8, ptr %12) #13
  store i64 0, ptr %12, align 8, !tbaa !29
  br label %19

19:                                               ; preds = %41, %18
  %20 = load i64, ptr %12, align 8, !tbaa !29
  %21 = load i64, ptr %9, align 8, !tbaa !29
  %22 = icmp ult i64 %20, %21
  br i1 %22, label %24, label %23

23:                                               ; preds = %19
  store i32 5, ptr %11, align 4
  br label %44

24:                                               ; preds = %19
  %25 = load ptr, ptr %6, align 8, !tbaa !5
  %26 = load i64, ptr %10, align 8, !tbaa !29
  %27 = getelementptr inbounds nuw i8, ptr %25, i64 %26
  %28 = load i8, ptr %27, align 1, !tbaa !12
  %29 = sext i8 %28 to i32
  %30 = load ptr, ptr %8, align 8, !tbaa !5
  %31 = load i64, ptr %12, align 8, !tbaa !29
  %32 = getelementptr inbounds nuw i8, ptr %30, i64 %31
  %33 = load i8, ptr %32, align 1, !tbaa !12
  %34 = sext i8 %33 to i32
  %35 = icmp eq i32 %29, %34
  br i1 %35, label %36, label %40

36:                                               ; preds = %24
  %37 = load ptr, ptr %6, align 8, !tbaa !5
  %38 = load i64, ptr %10, align 8, !tbaa !29
  %39 = getelementptr inbounds nuw i8, ptr %37, i64 %38
  store ptr %39, ptr %5, align 8
  store i32 1, ptr %11, align 4
  br label %44

40:                                               ; preds = %24
  br label %41

41:                                               ; preds = %40
  %42 = load i64, ptr %12, align 8, !tbaa !29
  %43 = add i64 %42, 1
  store i64 %43, ptr %12, align 8, !tbaa !29
  br label %19, !llvm.loop !33

44:                                               ; preds = %36, %23
  call void @llvm.lifetime.end.p0(i64 8, ptr %12) #13
  %45 = load i32, ptr %11, align 4
  switch i32 %45, label %50 [
    i32 5, label %46
  ]

46:                                               ; preds = %44
  br label %47

47:                                               ; preds = %46
  %48 = load i64, ptr %10, align 8, !tbaa !29
  %49 = add i64 %48, 1
  store i64 %49, ptr %10, align 8, !tbaa !29
  br label %13, !llvm.loop !34

50:                                               ; preds = %44, %17
  call void @llvm.lifetime.end.p0(i64 8, ptr %10) #13
  %51 = load i32, ptr %11, align 4
  switch i32 %51, label %55 [
    i32 2, label %52
    i32 1, label %53
  ]

52:                                               ; preds = %50
  store ptr null, ptr %5, align 8
  br label %53

53:                                               ; preds = %52, %50
  %54 = load ptr, ptr %5, align 8
  ret ptr %54

55:                                               ; preds = %50
  unreachable
}