; Function Attrs: nofree norecurse nosync nounwind memory(argmem: read) uwtable
define dso_local ptr @mempbrk(ptr noundef readonly captures(ret: address, provenance) %0, i64 noundef %1, ptr noundef readonly captures(none) %2, i64 noundef %3) local_unnamed_addr #11 {
  %.not2024.not = icmp eq i64 %1, 0
  %.not22.not = icmp eq i64 %3, 0
  %or.cond = or i1 %.not2024.not, %.not22.not
  br i1 %or.cond, label %.thread, label %.preheader.us

.preheader.us:                                    ; preds = %4, %._crit_edge.us
  %.01525.us = phi i64 [ %13, %._crit_edge.us ], [ 0, %4 ]
  %5 = getelementptr inbounds nuw i8, ptr %0, i64 %.01525.us
  %6 = load i8, ptr %5, align 1, !tbaa !9
  br label %9

7:                                                ; preds = %9
  %8 = add nuw i64 %.023.us, 1
  %exitcond.not = icmp eq i64 %8, %3
  br i1 %exitcond.not, label %._crit_edge.us, label %9, !llvm.loop !29

9:                                                ; preds = %.preheader.us, %7
  %.023.us = phi i64 [ 0, %.preheader.us ], [ %8, %7 ]
  %10 = getelementptr inbounds nuw i8, ptr %2, i64 %.023.us
  %11 = load i8, ptr %10, align 1, !tbaa !9
  %12 = icmp eq i8 %6, %11
  br i1 %12, label %.thread.loopexit, label %7

._crit_edge.us:                                   ; preds = %7
  %13 = add nuw i64 %.01525.us, 1
  %exitcond29.not = icmp eq i64 %13, %1
  br i1 %exitcond29.not, label %.thread, label %.preheader.us, !llvm.loop !30

.thread.loopexit:                                 ; preds = %9
  %14 = getelementptr inbounds nuw i8, ptr %0, i64 %.01525.us
  br label %.thread

.thread:                                          ; preds = %._crit_edge.us, %.thread.loopexit, %4
  %spec.select = phi ptr [ null, %4 ], [ %14, %.thread.loopexit ], [ null, %._crit_edge.us ]
  ret ptr %spec.select
}